target datalayout = "e-m:e-p270:32:32-p271:32:32-p272:64:64-i64:64-i128:128-f80:128-n8:16:32:64-S128"
target triple = "x86_64-pc-linux-gnu"

%struct.timeval = type { i64, i64 }
%struct.pmix_data_buffer = type { ptr, ptr, ptr, i64, i64 }
%struct.pmix_list_t = type { %struct.pmix_object_t, %struct.pmix_list_item_t, i64 }
%struct.pmix_object_t = type { %union.pthread_mutex_t, ptr, i32, %struct.pmix_tma }
%union.pthread_mutex_t = type { %struct.__pthread_mutex_s }
%struct.__pthread_mutex_s = type { i32, i32, i32, i32, i32, i16, i16, %struct.__pthread_internal_list }
%struct.__pthread_internal_list = type { ptr, ptr }
%struct.pmix_tma = type { ptr, ptr, ptr, ptr, ptr, ptr, ptr, ptr }
%struct.pmix_list_item_t = type { %struct.pmix_object_t, ptr, ptr, i32 }
%struct.prte_state_base_module_1_0_0_t = type { ptr, ptr, ptr, ptr, ptr, ptr, ptr, ptr, ptr, ptr }
%struct.prte_plm_globals_t = type { ptr, i32, %struct.timeval, %struct.pmix_data_buffer, i8, i64, %struct.pmix_list_t, i8, ptr }

@.str.6 = private unnamed_addr constant [37 x i8] c"PRTE ERROR: %s in file %s at line %d\00", align 1
@.str.7 = private unnamed_addr constant [22 x i8] c"base/plm_base_frame.c\00", align 1
@prte_state = external global %struct.prte_state_base_module_1_0_0_t, align 8

; Function Attrs: nounwind uwtable
define internal i32 @local_init() #0 {
  %1 = alloca i32, align 4
  call void @llvm.lifetime.start.p0(i64 4, ptr %1) #10
  %2 = load ptr, ptr getelementptr inbounds nuw (%struct.prte_state_base_module_1_0_0_t, ptr @prte_state, i32 0, i32 3), align 8, !tbaa !3
  %3 = call i32 %2(i32 noundef 8, ptr noundef @launch_daemons)
  store i32 %3, ptr %1, align 4, !tbaa !8
  %4 = load i32, ptr %1, align 4, !tbaa !8
  %5 = icmp ne i32 0, %4
  br i1 %5, label %6, label %16

6:                                                ; preds = %0
  br label %7

7:                                                ; preds = %6
  %8 = load i32, ptr %1, align 4, !tbaa !8
  %9 = icmp ne i32 -43, %8
  br i1 %9, label %10, label %13

10:                                               ; preds = %7
  %11 = load i32, ptr %1, align 4, !tbaa !8
  %12 = call ptr @prte_strerror(i32 noundef %11)
  call void (i32, ptr, ...) @pmix_output(i32 noundef 0, ptr noundef @.str.6, ptr noundef %12, ptr noundef @.str.7, i32 noundef 178)
  br label %13

13:                                               ; preds = %10, %7
  br label %14

14:                                               ; preds = %13
  br label %15

15:                                               ; preds = %14
  br label %16

16:                                               ; preds = %15, %0
  %17 = call i32 @prte_plm_base_comm_start()
  store i32 %17, ptr %1, align 4, !tbaa !8
  %18 = icmp ne i32 0, %17
  br i1 %18, label %19, label %29

19:                                               ; preds = %16
  br label %20

20:                                               ; preds = %19
  %21 = load i32, ptr %1, align 4, !tbaa !8
  %22 = icmp ne i32 -43, %21
  br i1 %22, label %23, label %26

23:                                               ; preds = %20
  %24 = load i32, ptr %1, align 4, !tbaa !8
  %25 = call ptr @prte_strerror(i32 noundef %24)
  call void (i32, ptr, ...) @pmix_output(i32 noundef 0, ptr noundef @.str.6, ptr noundef %25, ptr noundef @.str.7, i32 noundef 183)
  br label %26

26:                                               ; preds = %23, %20
  br label %27

27:                                               ; preds = %26
  br label %28

28:                                               ; preds = %27
  br label %29

29:                                               ; preds = %28, %16
  store i8 1, ptr getelementptr inbounds nuw (%struct.prte_plm_globals_t, ptr @prte_plm_globals, i32 0, i32 4), align 8, !tbaa !10
  %30 = load i32, ptr %1, align 4, !tbaa !8
  call void @llvm.lifetime.end.p0(i64 4, ptr %1) #10
  ret i32 %30
}