; Function Attrs: nounwind uwtable
define internal noundef i32 @local_init() #0 {
  %1 = load ptr, ptr getelementptr inbounds nuw (i8, ptr @prte_state, i64 24), align 8, !tbaa !3
  %2 = tail call i32 %1(i32 noundef 8, ptr noundef nonnull @launch_daemons) #10
  switch i32 %2, label %3 [
    i32 -43, label %5
    i32 0, label %5
  ]

3:                                                ; preds = %0
  %4 = tail call ptr @prte_strerror(i32 noundef %2) #10
  tail call void (i32, ptr, ...) @pmix_output(i32 noundef 0, ptr noundef nonnull @.str.6, ptr noundef %4, ptr noundef nonnull @.str.7, i32 noundef 178) #10
  br label %5

5:                                                ; preds = %0, %0, %3
  %6 = tail call i32 @prte_plm_base_comm_start() #10
  switch i32 %6, label %7 [
    i32 -43, label %9
    i32 0, label %9
  ]

7:                                                ; preds = %5
  %8 = tail call ptr @prte_strerror(i32 noundef %6) #10
  tail call void (i32, ptr, ...) @pmix_output(i32 noundef 0, ptr noundef nonnull @.str.6, ptr noundef %8, ptr noundef nonnull @.str.7, i32 noundef 183) #10
  br label %9

9:                                                ; preds = %5, %5, %7
  store i8 1, ptr getelementptr inbounds nuw (i8, ptr @prte_plm_globals, i64 72), align 8, !tbaa !8
  ret i32 %6
}